target datalayout = "e-m:e-p270:32:32-p271:32:32-p272:64:64-i64:64-i128:128-f80:128-n8:16:32:64-S128"
target triple = "x86_64-pc-linux-gnu"

%struct.ImVec2 = type { float, float }
%struct.ImRect = type { %struct.ImVec2, %struct.ImVec2 }
%struct.ImVector = type { i32, i32, ptr }
%struct.ImVector.0 = type { i32, i32, ptr }
%struct.ImVector.1 = type { i32, i32, ptr }
%struct.ImGuiStorage = type { %struct.ImVector.2 }
%struct.ImVector.2 = type { i32, i32, ptr }
%struct.ImVector.5 = type { i32, i32, ptr }
%struct.ImVector.7 = type { i32, i32, ptr }
%struct.ImVec4 = type { float, float, float, float }
%struct.ImVector.8 = type { i32, i32, ptr }
%struct.ImGuiContext = type { i8, i8, %struct.ImGuiIO, %struct.ImGuiPlatformIO, %struct.ImGuiStyle, ptr, float, float, float, float, %struct.ImDrawListSharedData, double, i32, i32, i32, i8, i8, i8, i8, i8, ptr, [16 x i8], %struct.ImVector.11, %struct.ImVector.11, i32, i32, %struct.ImVector.0, %struct.ImVector.0, %struct.ImVector.0, %struct.ImVector.12, %struct.ImGuiStorage, i32, %struct.ImVec2, i32, ptr, ptr, ptr, ptr, ptr, ptr, %struct.ImVec2, i32, i32, float, %struct.ImVec2, %struct.ImVec2, i32, i32, i32, i32, i32, float, float, i8, i8, i8, i32, i32, float, i8, i8, i8, i8, i8, i8, i8, i8, %struct.ImVec2, ptr, i32, i32, i8, i8, ptr, i32, float, double, double, double, %struct.ImBitArray, [154 x %struct.ImGuiKeyOwnerData], %struct.ImGuiKeyRoutingTable, i32, i8, i32, i32, i32, i32, %struct.ImGuiNextItemData, %struct.ImGuiLastItemData, %struct.ImGuiNextWindowData, i8, i32, %struct.ImVector.14, %struct.ImVector.15, %struct.ImVector.16, %struct.ImVector.17, %struct.ImVector.18, %struct.ImVector.19, %struct.ImVector.20, %struct.ImVector.20, %struct.ImVector.21, %struct.ImVector.22, ptr, i32, i32, i32, i32, i32, i32, i32, %struct.ImVector.17, i32, float, i32, i32, i32, i64, i8, i8, i8, i8, i8, i8, i8, %struct.ImGuiNavItemData, i8, i8, i8, i32, i32, i32, i32, i32, i32, %struct.ImRect, %struct.ImRect, i32, i32, i32, %struct.ImGuiNavItemData, %struct.ImGuiNavItemData, %struct.ImGuiNavItemData, %struct.ImGuiNavItemData, i32, i32, i32, i32, i8, i8, i32, i32, ptr, ptr, ptr, float, float, i8, i32, %struct.ImVec2, %struct.ImVec2, float, i8, i8, i8, i32, i32, i32, [4 x i8], %struct.ImGuiPayload, %struct.ImRect, %struct.ImRect, i32, i32, float, i32, i32, i32, i32, %struct.ImVector.23, [16 x i8], i32, %struct.ImVector.24, ptr, i32, i32, %struct.ImVector.25, %struct.ImPool, %struct.ImVector.1, %struct.ImVector.8, ptr, %struct.ImPool.27, %struct.ImVector.29, %struct.ImVector.30, %struct.ImGuiBoxSelectState, ptr, i32, %struct.ImVector.31, %struct.ImPool.32, i32, i32, float, float, i32, i32, i32, float, %struct.ImVec2, %struct.ImGuiInputTextState, %struct.ImGuiInputTextDeactivatedState, %struct.ImFont, i32, %struct.ImGuiDataTypeStorage, i32, i32, i32, i32, i32, float, float, i32, %struct.ImVec4, %struct.ImGuiComboPreviewData, %struct.ImRect, i8, i16, float, float, float, i8, i8, float, float, float, i16, i16, i16, ptr, %struct.ImVector.34, %struct.ImVector, %struct.ImGuiTypingSelectState, %struct.ImGuiPlatformImeData, %struct.ImGuiPlatformImeData, i8, float, %struct.ImGuiTextBuffer, %struct.ImVector.36, %struct.ImChunkStream, %struct.ImChunkStream.37, %struct.ImVector.38, i32, [10 x ptr], i8, i32, ptr, %struct.ImGuiTextBuffer, ptr, ptr, float, i8, i32, i32, i32, ptr, ptr, %struct.ImVec2, i8, i32, %struct.ImGuiErrorRecoveryState, ptr, i32, i32, %struct.ImGuiTextBuffer, %struct.ImGuiTextIndex, i32, i32, i8, i8, i8, i32, i8, i8, i8, i32, float, %struct.ImVec4, %struct.ImGuiMetricsConfig, %struct.ImGuiIDStackTool, %struct.ImGuiDebugAllocInfo, [60 x float], i32, i32, float, i32, i32, i32, %struct.ImVector.34, [64 x i8] }
%struct.ImGuiIO = type { i32, i32, %struct.ImVec2, float, float, ptr, ptr, ptr, ptr, float, i8, ptr, %struct.ImVec2, i8, i8, i8, i8, i8, i8, i8, i8, i8, i8, float, float, float, float, float, float, i8, i8, i8, i8, i8, i8, i8, i8, i8, i8, ptr, ptr, ptr, ptr, ptr, i8, i8, i8, i8, i8, i8, i8, float, i32, i32, i32, i32, %struct.ImVec2, ptr, %struct.ImVec2, [5 x i8], float, float, i32, i8, i8, i8, i8, i32, [154 x %struct.ImGuiKeyData], i8, %struct.ImVec2, [5 x %struct.ImVec2], [5 x double], [5 x i8], [5 x i8], [5 x i16], [5 x i16], [5 x i8], [5 x i8], [5 x i8], i8, i8, [5 x float], [5 x float], [5 x float], float, i8, i8, i8, i8, i16, %struct.ImVector.5 }
%struct.ImGuiKeyData = type { i8, float, float, float }
%struct.ImGuiPlatformIO = type <{ ptr, ptr, ptr, ptr, ptr, ptr, ptr, i16, [6 x i8] }>
%struct.ImGuiStyle = type { float, float, %struct.ImVec2, float, float, %struct.ImVec2, %struct.ImVec2, i32, float, float, float, float, %struct.ImVec2, float, float, %struct.ImVec2, %struct.ImVec2, %struct.ImVec2, %struct.ImVec2, float, float, float, float, float, float, float, float, float, float, float, float, float, %struct.ImVec2, i32, %struct.ImVec2, %struct.ImVec2, float, %struct.ImVec2, %struct.ImVec2, %struct.ImVec2, %struct.ImVec2, float, i8, i8, i8, float, float, [56 x %struct.ImVec4], float, float, float, i32, i32 }
%struct.ImDrawListSharedData = type { %struct.ImVec2, ptr, float, float, float, float, %struct.ImVec4, i32, %struct.ImVector.7, [48 x %struct.ImVec2], float, [64 x i8], ptr }
%struct.ImVector.11 = type { i32, i32, ptr }
%struct.ImVector.12 = type { i32, i32, ptr }
%struct.ImBitArray = type { [5 x i32] }
%struct.ImGuiKeyOwnerData = type <{ i32, i32, i8, i8, [2 x i8] }>
%struct.ImGuiKeyRoutingTable = type { [154 x i16], %struct.ImVector.13, %struct.ImVector.13 }
%struct.ImVector.13 = type { i32, i32, ptr }
%struct.ImGuiNextItemData = type <{ i32, i32, i32, [4 x i8], i64, float, i32, i32, i8, i8, %struct.ImGuiDataTypeStorage, [2 x i8], i32, [4 x i8] }>
%struct.ImGuiLastItemData = type { i32, i32, i32, %struct.ImRect, %struct.ImRect, %struct.ImRect, %struct.ImRect, i32 }
%struct.ImGuiNextWindowData = type { i32, i32, i32, i32, %struct.ImVec2, %struct.ImVec2, %struct.ImVec2, %struct.ImVec2, %struct.ImVec2, i32, i8, %struct.ImRect, ptr, ptr, float, %struct.ImVec2, i32 }
%struct.ImVector.14 = type { i32, i32, ptr }
%struct.ImVector.15 = type { i32, i32, ptr }
%struct.ImVector.16 = type { i32, i32, ptr }
%struct.ImVector.18 = type { i32, i32, ptr }
%struct.ImVector.19 = type { i32, i32, ptr }
%struct.ImVector.20 = type { i32, i32, ptr }
%struct.ImVector.21 = type { i32, i32, ptr }
%struct.ImVector.22 = type { i32, i32, ptr }
%struct.ImVector.17 = type { i32, i32, ptr }
%struct.ImGuiNavItemData = type { ptr, i32, i32, %struct.ImRect, i32, float, float, float, i64 }
%struct.ImGuiPayload = type <{ ptr, i32, i32, i32, i32, [33 x i8], i8, i8, [5 x i8] }>
%struct.ImVector.23 = type { i32, i32, ptr }
%struct.ImVector.24 = type { i32, i32, ptr }
%struct.ImVector.25 = type { i32, i32, ptr }
%struct.ImPool = type { %struct.ImVector.26, %struct.ImGuiStorage, i32, i32 }
%struct.ImVector.26 = type { i32, i32, ptr }
%struct.ImPool.27 = type { %struct.ImVector.28, %struct.ImGuiStorage, i32, i32 }
%struct.ImVector.28 = type { i32, i32, ptr }
%struct.ImVector.29 = type { i32, i32, ptr }
%struct.ImVector.30 = type { i32, i32, ptr }
%struct.ImGuiBoxSelectState = type <{ i32, i8, i8, i8, i8, i8, i16, i8, %struct.ImVec2, %struct.ImVec2, %struct.ImVec2, [4 x i8], ptr, i8, [3 x i8], %struct.ImRect, %struct.ImRect, %struct.ImRect, [4 x i8] }>
%struct.ImVector.31 = type { i32, i32, ptr }
%struct.ImPool.32 = type { %struct.ImVector.33, %struct.ImGuiStorage, i32, i32 }
%struct.ImVector.33 = type { i32, i32, ptr }
%struct.ImGuiInputTextState = type <{ ptr, ptr, i32, i32, %struct.ImVector.34, %struct.ImVector.34, %struct.ImVector.34, i32, %struct.ImVec2, float, i8, i8, i8, i8, i32, i8, [3 x i8], i32, i32, [4 x i8] }>
%struct.ImGuiInputTextDeactivatedState = type { i32, %struct.ImVector.34 }
%struct.ImFont = type <{ %struct.ImVector.1, float, float, %struct.ImVector.5, %struct.ImVector.35, ptr, ptr, ptr, i16, i16, i16, i16, float, float, i8, [3 x i8], float, float, float, i32, [2 x i8], [2 x i8] }>
%struct.ImVector.35 = type { i32, i32, ptr }
%struct.ImGuiDataTypeStorage = type { [8 x i8] }
%struct.ImGuiComboPreviewData = type { %struct.ImRect, %struct.ImVec2, %struct.ImVec2, %struct.ImVec2, float, i32 }
%struct.ImGuiTypingSelectState = type <{ %struct.ImGuiTypingSelectRequest, [64 x i8], i32, i32, float, i8, [3 x i8] }>
%struct.ImGuiTypingSelectRequest = type { i32, i32, ptr, i8, i8, i8 }
%struct.ImGuiPlatformImeData = type { i8, %struct.ImVec2, float }
%struct.ImVector.36 = type { i32, i32, ptr }
%struct.ImChunkStream = type { %struct.ImVector.34 }
%struct.ImChunkStream.37 = type { %struct.ImVector.34 }
%struct.ImVector.38 = type { i32, i32, ptr }
%struct.ImGuiErrorRecoveryState = type { i16, i16, i16, i16, i16, i16, i16, i16, i16, i16, i16 }
%struct.ImGuiTextBuffer = type { %struct.ImVector.34 }
%struct.ImGuiTextIndex = type <{ %struct.ImVector.18, i32, [4 x i8] }>
%struct.ImGuiMetricsConfig = type { i8, i8, i8, i8, i8, i8, i8, i8, i8, i32, i32, i32, i32 }
%struct.ImGuiIDStackTool = type { i32, i32, i32, %struct.ImVector.39, i8, float }
%struct.ImVector.39 = type { i32, i32, ptr }
%struct.ImGuiDebugAllocInfo = type { i32, i32, i16, [6 x %struct.ImGuiDebugAllocEntry] }
%struct.ImGuiDebugAllocEntry = type { i32, i16, i16 }
%struct.ImVector.34 = type { i32, i32, ptr }
%struct.ImGuiTabBar = type { ptr, %struct.ImVector.43, i32, i32, i32, i32, i32, i32, i32, %struct.ImRect, float, float, float, float, float, float, float, float, float, float, float, float, i32, i16, i8, i8, i8, i8, i16, i16, float, %struct.ImVec2, %struct.ImVec2, %struct.ImGuiTextBuffer }
%struct.ImVector.43 = type { i32, i32, ptr }
%struct.ImGuiTabItem = type <{ i32, i32, i32, i32, float, float, float, float, i32, i16, i16, i8, [3 x i8] }>

@GImGui = external global ptr, align 8

; Function Attrs: inlinehint mustprogress nounwind uwtable
define linkonce_odr dso_local noundef nonnull align 4 dereferenceable(41) ptr @_ZN8ImVectorI12ImGuiTabItemEixEi(ptr noundef nonnull align 8 dereferenceable(16) %0, i32 noundef %1) #2 comdat align 2 {
  %3 = alloca ptr, align 8
  %4 = alloca i32, align 4
  store ptr %0, ptr %3, align 8, !tbaa !814
  store i32 %1, ptr %4, align 4, !tbaa !9
  %5 = load ptr, ptr %3, align 8
  %6 = getelementptr inbounds nuw %struct.ImVector.43, ptr %5, i32 0, i32 2
  %7 = load ptr, ptr %6, align 8, !tbaa !818
  %8 = load i32, ptr %4, align 4, !tbaa !9
  %9 = sext i32 %8 to i64
  %10 = getelementptr inbounds %struct.ImGuiTabItem, ptr %7, i64 %9
  ret ptr %10
}

; Function Attrs: mustprogress uwtable
define dso_local noundef ptr @_ZN5ImGui17TabBarFindTabByIDEP11ImGuiTabBarj(ptr noundef %0, i32 noundef %1) #8 {
  %3 = alloca ptr, align 8
  %4 = alloca ptr, align 8
  %5 = alloca i32, align 4
  %6 = alloca i32, align 4
  %7 = alloca i32, align 4
  store ptr %0, ptr %4, align 8, !tbaa !807
  store i32 %1, ptr %5, align 4, !tbaa !9
  %8 = load i32, ptr %5, align 4, !tbaa !9
  %9 = icmp ne i32 %8, 0
  br i1 %9, label %10, label %40

10:                                               ; preds = %2
  call void @llvm.lifetime.start.p0(i64 4, ptr %6) #17
  store i32 0, ptr %6, align 4, !tbaa !9
  br label %11

11:                                               ; preds = %34, %10
  %12 = load i32, ptr %6, align 4, !tbaa !9
  %13 = load ptr, ptr %4, align 8, !tbaa !807
  %14 = getelementptr inbounds nuw %struct.ImGuiTabBar, ptr %13, i32 0, i32 1
  %15 = getelementptr inbounds nuw %struct.ImVector.43, ptr %14, i32 0, i32 0
  %16 = load i32, ptr %15, align 8, !tbaa !837
  %17 = icmp slt i32 %12, %16
  br i1 %17, label %19, label %18

18:                                               ; preds = %11
  store i32 2, ptr %7, align 4
  br label %37

19:                                               ; preds = %11
  %20 = load ptr, ptr %4, align 8, !tbaa !807
  %21 = getelementptr inbounds nuw %struct.ImGuiTabBar, ptr %20, i32 0, i32 1
  %22 = load i32, ptr %6, align 4, !tbaa !9
  %23 = call noundef nonnull align 4 dereferenceable(41) ptr @_ZN8ImVectorI12ImGuiTabItemEixEi(ptr noundef nonnull align 8 dereferenceable(16) %21, i32 noundef %22)
  %24 = getelementptr inbounds nuw %struct.ImGuiTabItem, ptr %23, i32 0, i32 0
  %25 = load i32, ptr %24, align 4, !tbaa !856
  %26 = load i32, ptr %5, align 4, !tbaa !9
  %27 = icmp eq i32 %25, %26
  br i1 %27, label %28, label %33

28:                                               ; preds = %19
  %29 = load ptr, ptr %4, align 8, !tbaa !807
  %30 = getelementptr inbounds nuw %struct.ImGuiTabBar, ptr %29, i32 0, i32 1
  %31 = load i32, ptr %6, align 4, !tbaa !9
  %32 = call noundef nonnull align 4 dereferenceable(41) ptr @_ZN8ImVectorI12ImGuiTabItemEixEi(ptr noundef nonnull align 8 dereferenceable(16) %30, i32 noundef %31)
  store ptr %32, ptr %3, align 8
  store i32 1, ptr %7, align 4
  br label %37

33:                                               ; preds = %19
  br label %34

34:                                               ; preds = %33
  %35 = load i32, ptr %6, align 4, !tbaa !9
  %36 = add nsw i32 %35, 1
  store i32 %36, ptr %6, align 4, !tbaa !9
  br label %11, !llvm.loop !897

37:                                               ; preds = %28, %18
  call void @llvm.lifetime.end.p0(i64 4, ptr %6) #17
  %38 = load i32, ptr %7, align 4
  switch i32 %38, label %43 [
    i32 2, label %39
    i32 1, label %41
  ]

39:                                               ; preds = %37
  br label %40

40:                                               ; preds = %39, %2
  store ptr null, ptr %3, align 8
  br label %41

41:                                               ; preds = %40, %37
  %42 = load ptr, ptr %3, align 8
  ret ptr %42

43:                                               ; preds = %37
  unreachable
}

; Function Attrs: mustprogress uwtable
define internal noundef i32 @_ZN5ImGuiL15TabBarCalcTabIDEP11ImGuiTabBarPKcP11ImGuiWindow(ptr noundef %0, ptr noundef %1, ptr noundef %2) #8 {
  %4 = alloca i32, align 4
  %5 = alloca ptr, align 8
  %6 = alloca ptr, align 8
  %7 = alloca ptr, align 8
  %8 = alloca i32, align 4
  %9 = alloca ptr, align 8
  store ptr %0, ptr %5, align 8, !tbaa !807
  store ptr %1, ptr %6, align 8, !tbaa !4
  store ptr %2, ptr %7, align 8, !tbaa !11
  %10 = load ptr, ptr %5, align 8, !tbaa !807
  %11 = getelementptr inbounds nuw %struct.ImGuiTabBar, ptr %10, i32 0, i32 2
  %12 = load i32, ptr %11, align 8, !tbaa !834
  %13 = and i32 %12, 1048576
  %14 = icmp ne i32 %13, 0
  br i1 %14, label %15, label %20

15:                                               ; preds = %3
  call void @llvm.lifetime.start.p0(i64 4, ptr %8) #17
  %16 = load ptr, ptr %6, align 8, !tbaa !4
  %17 = call noundef i32 @_Z9ImHashStrPKcmj(ptr noundef %16, i64 noundef 0, i32 noundef 0)
  store i32 %17, ptr %8, align 4, !tbaa !9
  %18 = load i32, ptr %8, align 4, !tbaa !9
  call void @_ZN5ImGui11KeepAliveIDEj(i32 noundef %18)
  %19 = load i32, ptr %8, align 4, !tbaa !9
  store i32 %19, ptr %4, align 4
  call void @llvm.lifetime.end.p0(i64 4, ptr %8) #17
  br label %27

20:                                               ; preds = %3
  call void @llvm.lifetime.start.p0(i64 8, ptr %9) #17
  %21 = load ptr, ptr @GImGui, align 8, !tbaa !61
  %22 = getelementptr inbounds nuw %struct.ImGuiContext, ptr %21, i32 0, i32 34
  %23 = load ptr, ptr %22, align 8, !tbaa !172
  store ptr %23, ptr %9, align 8, !tbaa !11
  %24 = load ptr, ptr %9, align 8, !tbaa !11
  %25 = load ptr, ptr %6, align 8, !tbaa !4
  %26 = call noundef i32 @_ZN11ImGuiWindow5GetIDEPKcS1_(ptr noundef nonnull align 8 dereferenceable(1029) %24, ptr noundef %25, ptr noundef null)
  store i32 %26, ptr %4, align 4
  call void @llvm.lifetime.end.p0(i64 8, ptr %9) #17
  br label %27

27:                                               ; preds = %20, %15
  %28 = load i32, ptr %4, align 4
  ret i32 %28
}

; Function Attrs: mustprogress uwtable
define dso_local void @_ZN5ImGui16SetTabItemClosedEPKc(ptr noundef %0) #8 {
  %2 = alloca ptr, align 8
  %3 = alloca ptr, align 8
  %4 = alloca i8, align 1
  %5 = alloca ptr, align 8
  %6 = alloca i32, align 4
  %7 = alloca ptr, align 8
  store ptr %0, ptr %2, align 8, !tbaa !4
  call void @llvm.lifetime.start.p0(i64 8, ptr %3) #17
  %8 = load ptr, ptr @GImGui, align 8, !tbaa !61
  store ptr %8, ptr %3, align 8, !tbaa !61
  call void @llvm.lifetime.start.p0(i64 1, ptr %4) #17
  %9 = load ptr, ptr %3, align 8, !tbaa !61
  %10 = getelementptr inbounds nuw %struct.ImGuiContext, ptr %9, i32 0, i32 190
  %11 = load ptr, ptr %10, align 8, !tbaa !829
  %12 = icmp ne ptr %11, null
  br i1 %12, label %13, label %22

13:                                               ; preds = %1
  %14 = load ptr, ptr %3, align 8, !tbaa !61
  %15 = getelementptr inbounds nuw %struct.ImGuiContext, ptr %14, i32 0, i32 190
  %16 = load ptr, ptr %15, align 8, !tbaa !829
  %17 = getelementptr inbounds nuw %struct.ImGuiTabBar, ptr %16, i32 0, i32 2
  %18 = load i32, ptr %17, align 8, !tbaa !834
  %19 = and i32 %18, 1048576
  %20 = icmp ne i32 %19, 0
  %21 = xor i1 %20, true
  br label %22

22:                                               ; preds = %13, %1
  %23 = phi i1 [ false, %1 ], [ %21, %13 ]
  %24 = zext i1 %23 to i8
  store i8 %24, ptr %4, align 1, !tbaa !67
  %25 = load i8, ptr %4, align 1, !tbaa !67, !range !59, !noundef !60
  %26 = trunc i8 %25 to i1
  br i1 %26, label %27, label %43

27:                                               ; preds = %22
  call void @llvm.lifetime.start.p0(i64 8, ptr %5) #17
  %28 = load ptr, ptr %3, align 8, !tbaa !61
  %29 = getelementptr inbounds nuw %struct.ImGuiContext, ptr %28, i32 0, i32 190
  %30 = load ptr, ptr %29, align 8, !tbaa !829
  store ptr %30, ptr %5, align 8, !tbaa !807
  call void @llvm.lifetime.start.p0(i64 4, ptr %6) #17
  %31 = load ptr, ptr %5, align 8, !tbaa !807
  %32 = load ptr, ptr %2, align 8, !tbaa !4
  %33 = call noundef i32 @_ZN5ImGuiL15TabBarCalcTabIDEP11ImGuiTabBarPKcP11ImGuiWindow(ptr noundef %31, ptr noundef %32, ptr noundef null)
  store i32 %33, ptr %6, align 4, !tbaa !9
  call void @llvm.lifetime.start.p0(i64 8, ptr %7) #17
  %34 = load ptr, ptr %5, align 8, !tbaa !807
  %35 = load i32, ptr %6, align 4, !tbaa !9
  %36 = call noundef ptr @_ZN5ImGui17TabBarFindTabByIDEP11ImGuiTabBarj(ptr noundef %34, i32 noundef %35)
  store ptr %36, ptr %7, align 8, !tbaa !849
  %37 = load ptr, ptr %7, align 8, !tbaa !849
  %38 = icmp ne ptr %37, null
  br i1 %38, label %39, label %42

39:                                               ; preds = %27
  %40 = load ptr, ptr %7, align 8, !tbaa !849
  %41 = getelementptr inbounds nuw %struct.ImGuiTabItem, ptr %40, i32 0, i32 11
  store i8 1, ptr %41, align 4, !tbaa !855
  br label %42

42:                                               ; preds = %39, %27
  call void @llvm.lifetime.end.p0(i64 8, ptr %7) #17
  call void @llvm.lifetime.end.p0(i64 4, ptr %6) #17
  call void @llvm.lifetime.end.p0(i64 8, ptr %5) #17
  br label %43

43:                                               ; preds = %42, %22
  call void @llvm.lifetime.end.p0(i64 1, ptr %4) #17
  call void @llvm.lifetime.end.p0(i64 8, ptr %3) #17
  ret void
}