; Function Attrs: mustprogress uwtable
define dso_local void @_ZN5ImGui16SetTabItemClosedEPKc(ptr noundef %0) local_unnamed_addr #5 {
  %2 = load ptr, ptr @GImGui, align 8, !tbaa !4
  %3 = getelementptr inbounds nuw i8, ptr %2, i64 8640
  %4 = load ptr, ptr %3, align 8, !tbaa !731
  %.not = icmp eq ptr %4, null
  br i1 %.not, label %.critedge, label %5

5:                                                ; preds = %1
  %6 = getelementptr inbounds nuw i8, ptr %4, i64 24
  %7 = load i32, ptr %6, align 8, !tbaa !736
  %8 = and i32 %7, 1048576
  %.not10 = icmp eq i32 %8, 0
  br i1 %.not10, label %_ZN5ImGuiL15TabBarCalcTabIDEP11ImGuiTabBarPKcP11ImGuiWindow.exit, label %.critedge

_ZN5ImGuiL15TabBarCalcTabIDEP11ImGuiTabBarPKcP11ImGuiWindow.exit: ; preds = %5
  %9 = getelementptr inbounds nuw i8, ptr %2, i64 4928
  %10 = load ptr, ptr %9, align 8, !tbaa !9
  %11 = tail call noundef i32 @_ZN11ImGuiWindow5GetIDEPKcS1_(ptr noundef nonnull align 8 dereferenceable(1029) %10, ptr noundef %0, ptr noundef null)
  %.not.i12 = icmp eq i32 %11, 0
  br i1 %.not.i12, label %.critedge, label %.preheader.i

.preheader.i:                                     ; preds = %_ZN5ImGuiL15TabBarCalcTabIDEP11ImGuiTabBarPKcP11ImGuiWindow.exit
  %12 = getelementptr inbounds nuw i8, ptr %4, i64 8
  %13 = load i32, ptr %12, align 8, !tbaa !738
  %14 = icmp sgt i32 %13, 0
  br i1 %14, label %.lr.ph.i, label %.critedge

.lr.ph.i:                                         ; preds = %.preheader.i
  %15 = getelementptr inbounds nuw i8, ptr %4, i64 16
  %16 = load ptr, ptr %15, align 8, !tbaa !751
  %wide.trip.count.i = zext nneg i32 %13 to i64
  br label %18

17:                                               ; preds = %18
  %indvars.iv.next.i = add nuw nsw i64 %indvars.iv.i, 1
  %exitcond.not.i = icmp eq i64 %indvars.iv.next.i, %wide.trip.count.i
  br i1 %exitcond.not.i, label %.critedge, label %18, !llvm.loop !767

18:                                               ; preds = %17, %.lr.ph.i
  %indvars.iv.i = phi i64 [ 0, %.lr.ph.i ], [ %indvars.iv.next.i, %17 ]
  %19 = getelementptr inbounds nuw %struct.ImGuiTabItem, ptr %16, i64 %indvars.iv.i
  %20 = load i32, ptr %19, align 4, !tbaa !754
  %21 = icmp eq i32 %20, %11
  br i1 %21, label %_ZN5ImGui17TabBarFindTabByIDEP11ImGuiTabBarj.exit, label %17

_ZN5ImGui17TabBarFindTabByIDEP11ImGuiTabBarj.exit: ; preds = %18
  %22 = getelementptr inbounds nuw i8, ptr %19, i64 40
  store i8 1, ptr %22, align 4, !tbaa !753
  br label %.critedge

.critedge:                                        ; preds = %17, %.preheader.i, %_ZN5ImGuiL15TabBarCalcTabIDEP11ImGuiTabBarPKcP11ImGuiWindow.exit, %1, %_ZN5ImGui17TabBarFindTabByIDEP11ImGuiTabBarj.exit, %5
  ret void
}